; Function Attrs: null_pointer_is_valid sspstrong uwtable
define internal fastcc noundef i32 @dissect_rsl_ie_frame_no(ptr noundef %0, ptr noundef %1, i32 noundef %2, i1 noundef zeroext %3) unnamed_addr #0 {
  br i1 %3, label %7, label %5

5:                                                ; preds = %4
  %6 = tail call zeroext i8 @tvb_get_uint8(ptr noundef %0, i32 noundef %2)
  %.not = icmp eq i8 %6, 8
  br i1 %.not, label %7, label %proto_item_set_generated.exit

7:                                                ; preds = %5, %4
  %8 = load i32, ptr @ett_ie_frame_no, align 4
  %9 = tail call ptr @proto_tree_add_subtree(ptr noundef %1, ptr noundef %0, i32 noundef %2, i32 noundef 3, i32 noundef %8, ptr noundef null, ptr noundef nonnull @.str.816)
  %10 = load i32, ptr @hf_rsl_ie_id, align 4
  %11 = tail call ptr @proto_tree_add_item(ptr noundef %9, i32 noundef %10, ptr noundef %0, i32 noundef %2, i32 noundef 1, i32 noundef 0)
  %12 = add i32 %2, 1
  %13 = tail call zeroext i16 @parse_reduced_frame_number(ptr noundef %0, i32 noundef %12)
  %14 = load i32, ptr @hf_rsl_req_ref_T1prim, align 4
  %15 = tail call ptr @proto_tree_add_item(ptr noundef %9, i32 noundef %14, ptr noundef %0, i32 noundef %12, i32 noundef 1, i32 noundef 0)
  %16 = load i32, ptr @hf_rsl_req_ref_T3, align 4
  %17 = tail call ptr @proto_tree_add_item(ptr noundef %9, i32 noundef %16, ptr noundef %0, i32 noundef %12, i32 noundef 2, i32 noundef 0)
  %18 = add i32 %2, 2
  %19 = load i32, ptr @hf_rsl_req_ref_T2, align 4
  %20 = tail call ptr @proto_tree_add_item(ptr noundef %9, i32 noundef %19, ptr noundef %0, i32 noundef %18, i32 noundef 1, i32 noundef 0)
  %21 = add i32 %2, 3
  %22 = load i32, ptr @hf_rsl_req_ref_rfn, align 4
  %23 = zext i16 %13 to i32
  %24 = tail call ptr @proto_tree_add_uint(ptr noundef %9, i32 noundef %22, ptr noundef %0, i32 noundef %12, i32 noundef 2, i32 noundef %23)
  %.not.i = icmp eq ptr %24, null
  br i1 %.not.i, label %proto_item_set_generated.exit, label %25

25:                                               ; preds = %7
  %26 = getelementptr inbounds nuw i8, ptr %24, i64 40
  %27 = load ptr, ptr %26, align 8
  %.not5.i = icmp eq ptr %27, null
  br i1 %.not5.i, label %proto_item_set_generated.exit, label %28

28:                                               ; preds = %25
  %29 = getelementptr inbounds nuw i8, ptr %27, i64 28
  %30 = load i32, ptr %29, align 4
  %31 = or i32 %30, 2
  store i32 %31, ptr %29, align 4
  br label %proto_item_set_generated.exit

proto_item_set_generated.exit:                    ; preds = %28, %25, %7, %5
  %.0 = phi i32 [ %2, %5 ], [ %21, %7 ], [ %21, %25 ], [ %21, %28 ]
  ret i32 %.0
}